; Function Attrs: nounwind uwtable
define hidden void @VP8EncInitAlpha(ptr noundef initializes((540, 556)) %0) local_unnamed_addr #0 {
  tail call void @WebPInitAlphaProcessing() #5
  %2 = getelementptr inbounds nuw i8, ptr %0, i64 8
  %3 = load ptr, ptr %2, align 8, !tbaa !3
  %4 = tail call i32 @WebPPictureHasTransparency(ptr noundef %3) #5
  %5 = getelementptr inbounds nuw i8, ptr %0, i64 540
  store i32 %4, ptr %5, align 4, !tbaa !24
  %6 = getelementptr inbounds nuw i8, ptr %0, i64 544
  store ptr null, ptr %6, align 8, !tbaa !25
  %7 = getelementptr inbounds nuw i8, ptr %0, i64 552
  store i32 0, ptr %7, align 8, !tbaa !26
  %8 = getelementptr inbounds nuw i8, ptr %0, i64 23632
  %9 = load i32, ptr %8, align 8, !tbaa !27
  %10 = icmp sgt i32 %9, 0
  br i1 %10, label %11, label %18

11:                                               ; preds = %1
  %12 = getelementptr inbounds nuw i8, ptr %0, i64 560
  %13 = tail call ptr @WebPGetWorkerInterface() #5
  %14 = load ptr, ptr %13, align 8, !tbaa !28
  tail call void %14(ptr noundef nonnull %12) #5
  %15 = getelementptr inbounds nuw i8, ptr %0, i64 584
  store ptr %0, ptr %15, align 8, !tbaa !30
  %16 = getelementptr inbounds nuw i8, ptr %0, i64 592
  store ptr null, ptr %16, align 8, !tbaa !31
  %17 = getelementptr inbounds nuw i8, ptr %0, i64 576
  store ptr @CompressAlphaJob, ptr %17, align 8, !tbaa !32
  br label %18

18:                                               ; preds = %11, %1
  ret void
}